target datalayout = "e-m:e-p270:32:32-p271:32:32-p272:64:64-i64:64-i128:128-f80:128-n8:16:32:64-S128"
target triple = "x86_64-pc-linux-gnu"

%"class.triggers::trigger_t.base" = type <{ ptr, i64, i8, i8, i8, i8, i8, [3 x i8], i32, i32, i32, i32, i32 }>
%"class.triggers::icount_t" = type { %"class.triggers::trigger_t.base", i8, i8, i32, i32, i8, i8, i32 }

; Function Attrs: mustprogress nounwind uwtable
define void @_ZN8triggers8icount_t23detect_icount_decrementEP11processor_t(ptr noundef nonnull align 8 dereferenceable(64) %0, ptr noundef %1) unnamed_addr #4 align 2 {
  %3 = alloca ptr, align 8
  %4 = alloca ptr, align 8
  store ptr %0, ptr %3, align 8, !tbaa !232
  store ptr %1, ptr %4, align 8, !tbaa !8
  %5 = load ptr, ptr %3, align 8
  %6 = load ptr, ptr %4, align 8, !tbaa !8
  %7 = call noundef zeroext i1 @_ZNK8triggers9trigger_t12common_matchEP11processor_tb(ptr noundef nonnull align 8 dereferenceable(44) %5, ptr noundef %6, i1 noundef zeroext false) #3
  br i1 %7, label %9, label %8

8:                                                ; preds = %2
  br label %24

9:                                                ; preds = %2
  %10 = getelementptr inbounds nuw %"class.triggers::icount_t", ptr %5, i32 0, i32 3
  %11 = load i32, ptr %10, align 8, !tbaa !239
  %12 = icmp uge i32 %11, 1
  br i1 %12, label %13, label %24

13:                                               ; preds = %9
  %14 = getelementptr inbounds nuw %"class.triggers::icount_t", ptr %5, i32 0, i32 3
  %15 = load i32, ptr %14, align 8, !tbaa !239
  %16 = icmp eq i32 %15, 1
  br i1 %16, label %17, label %19

17:                                               ; preds = %13
  %18 = getelementptr inbounds nuw %"class.triggers::icount_t", ptr %5, i32 0, i32 5
  store i8 1, ptr %18, align 8, !tbaa !234
  br label %19

19:                                               ; preds = %17, %13
  %20 = getelementptr inbounds nuw %"class.triggers::icount_t", ptr %5, i32 0, i32 3
  %21 = load i32, ptr %20, align 8, !tbaa !239
  %22 = sub i32 %21, 1
  %23 = getelementptr inbounds nuw %"class.triggers::icount_t", ptr %5, i32 0, i32 3
  store i32 %22, ptr %23, align 8, !tbaa !239
  br label %24

24:                                               ; preds = %8, %19, %9
  ret void
}