; Function Attrs: mustprogress nounwind uwtable
define void @_ZN8triggers8icount_t23detect_icount_decrementEP11processor_t(ptr noundef nonnull align 8 dereferenceable(64) %0, ptr noundef readonly captures(none) %1) unnamed_addr #6 align 2 {
  %3 = tail call noundef zeroext i1 @_ZNK8triggers9trigger_t12common_matchEP11processor_tb(ptr noundef nonnull align 8 dereferenceable(44) %0, ptr noundef %1, i1 noundef zeroext false) #22
  br i1 %3, label %4, label %11

4:                                                ; preds = %2
  %5 = getelementptr inbounds nuw i8, ptr %0, i64 48
  %6 = load i32, ptr %5, align 8, !tbaa !191
  switch i32 %6, label %9 [
    i32 0, label %11
    i32 1, label %7
  ]

7:                                                ; preds = %4
  %8 = getelementptr inbounds nuw i8, ptr %0, i64 56
  store i8 1, ptr %8, align 8, !tbaa !187
  br label %9

9:                                                ; preds = %4, %7
  %10 = add i32 %6, -1
  store i32 %10, ptr %5, align 8, !tbaa !191
  br label %11

11:                                               ; preds = %4, %2, %9
  ret void
}